; Function Attrs: mustprogress nounwind uwtable
define hidden void @_ZNK4llvh5Twine9printReprERNS_11raw_ostreamE(ptr nocapture noundef nonnull readonly align 8 dereferenceable(18) %this, ptr noundef nonnull align 8 dereferenceable(36) %OS) local_unnamed_addr #0 align 2 {
entry:
  %OutBufEnd.i5.i = getelementptr inbounds i8, ptr %OS, i64 16
  %0 = load ptr, ptr %OutBufEnd.i5.i, align 8
  %OutBufCur.i6.i = getelementptr inbounds i8, ptr %OS, i64 24
  %1 = load ptr, ptr %OutBufCur.i6.i, align 8
  %sub.ptr.lhs.cast.i7.i = ptrtoint ptr %0 to i64
  %sub.ptr.rhs.cast.i8.i = ptrtoint ptr %1 to i64
  %sub.ptr.sub.i9.i = sub i64 %sub.ptr.lhs.cast.i7.i, %sub.ptr.rhs.cast.i8.i
  %cmp.i.i = icmp ult i64 %sub.ptr.sub.i9.i, 7
  br i1 %cmp.i.i, label %if.then.i.i, label %if.then4.i.i

if.then.i.i:                                      ; preds = %entry
  %call3.i.i = tail call noundef nonnull align 8 dereferenceable(36) ptr @_ZN4llvh11raw_ostream5writeEPKcm(ptr noundef nonnull align 8 dereferenceable(36) %OS, ptr noundef nonnull @.str.17, i64 noundef 7) #8
  br label %_ZN4llvh11raw_ostreamlsEPKc.exit

if.then4.i.i:                                     ; preds = %entry
  tail call void @llvm.memcpy.p0.p0.i64(ptr noundef nonnull align 1 dereferenceable(7) %1, ptr noundef nonnull align 1 dereferenceable(7) @.str.17, i64 7, i1 false)
  %2 = load ptr, ptr %OutBufCur.i6.i, align 8
  %add.ptr.i.i = getelementptr inbounds i8, ptr %2, i64 7
  store ptr %add.ptr.i.i, ptr %OutBufCur.i6.i, align 8
  br label %_ZN4llvh11raw_ostreamlsEPKc.exit

_ZN4llvh11raw_ostreamlsEPKc.exit:                 ; preds = %if.then.i.i, %if.then4.i.i
  %agg.tmp.sroa.0.0.copyload = load ptr, ptr %this, align 8
  %LHSKind.i = getelementptr inbounds i8, ptr %this, i64 16
  %3 = load i8, ptr %LHSKind.i, align 8
  tail call void @_ZNK4llvh5Twine17printOneChildReprERNS_11raw_ostreamENS0_5ChildENS0_8NodeKindE(ptr nonnull align 8 poison, ptr noundef nonnull align 8 dereferenceable(36) %OS, ptr %agg.tmp.sroa.0.0.copyload, i8 noundef zeroext %3)
  %4 = load ptr, ptr %OutBufEnd.i5.i, align 8
  %5 = load ptr, ptr %OutBufCur.i6.i, align 8
  %cmp.i.i11 = icmp eq ptr %4, %5
  br i1 %cmp.i.i11, label %if.then.i.i17, label %if.then4.i.i14

if.then.i.i17:                                    ; preds = %_ZN4llvh11raw_ostreamlsEPKc.exit
  %call3.i.i18 = tail call noundef nonnull align 8 dereferenceable(36) ptr @_ZN4llvh11raw_ostream5writeEPKcm(ptr noundef nonnull align 8 dereferenceable(36) %OS, ptr noundef nonnull @.str.18, i64 noundef 1) #8
  br label %_ZN4llvh11raw_ostreamlsEPKc.exit19

if.then4.i.i14:                                   ; preds = %_ZN4llvh11raw_ostreamlsEPKc.exit
  store i8 32, ptr %5, align 1
  %6 = load ptr, ptr %OutBufCur.i6.i, align 8
  %add.ptr.i.i15 = getelementptr inbounds i8, ptr %6, i64 1
  store ptr %add.ptr.i.i15, ptr %OutBufCur.i6.i, align 8
  br label %_ZN4llvh11raw_ostreamlsEPKc.exit19

_ZN4llvh11raw_ostreamlsEPKc.exit19:               ; preds = %if.then.i.i17, %if.then4.i.i14
  %RHS = getelementptr inbounds i8, ptr %this, i64 8
  %agg.tmp4.sroa.0.0.copyload = load ptr, ptr %RHS, align 8
  %RHSKind.i = getelementptr inbounds i8, ptr %this, i64 17
  %7 = load i8, ptr %RHSKind.i, align 1
  tail call void @_ZNK4llvh5Twine17printOneChildReprERNS_11raw_ostreamENS0_5ChildENS0_8NodeKindE(ptr nonnull align 8 poison, ptr noundef nonnull align 8 dereferenceable(36) %OS, ptr %agg.tmp4.sroa.0.0.copyload, i8 noundef zeroext %7)
  %8 = load ptr, ptr %OutBufEnd.i5.i, align 8
  %9 = load ptr, ptr %OutBufCur.i6.i, align 8
  %cmp.i.i26 = icmp eq ptr %8, %9
  br i1 %cmp.i.i26, label %if.then.i.i32, label %if.then4.i.i29

if.then.i.i32:                                    ; preds = %_ZN4llvh11raw_ostreamlsEPKc.exit19
  %call3.i.i33 = tail call noundef nonnull align 8 dereferenceable(36) ptr @_ZN4llvh11raw_ostream5writeEPKcm(ptr noundef nonnull align 8 dereferenceable(36) %OS, ptr noundef nonnull @.str.19, i64 noundef 1) #8
  br label %_ZN4llvh11raw_ostreamlsEPKc.exit34

if.then4.i.i29:                                   ; preds = %_ZN4llvh11raw_ostreamlsEPKc.exit19
  store i8 41, ptr %9, align 1
  %10 = load ptr, ptr %OutBufCur.i6.i, align 8
  %add.ptr.i.i30 = getelementptr inbounds i8, ptr %10, i64 1
  store ptr %add.ptr.i.i30, ptr %OutBufCur.i6.i, align 8
  br label %_ZN4llvh11raw_ostreamlsEPKc.exit34

_ZN4llvh11raw_ostreamlsEPKc.exit34:               ; preds = %if.then.i.i32, %if.then4.i.i29
  ret void
}